target datalayout = "e-m:e-p270:32:32-p271:32:32-p272:64:64-i64:64-i128:128-f80:128-n8:16:32:64-S128"
target triple = "x86_64-pc-linux-gnu"

%"class.llvm::codeview::TypeIndex" = type { %"struct.llvm::support::detail::packed_endian_specific_integral" }
%"struct.llvm::support::detail::packed_endian_specific_integral" = type { %struct.anon }
%struct.anon = type { [4 x i8] }
%"class.llvm::codeview::ProcedureRecord" = type { %"class.llvm::codeview::TypeRecord", %"class.llvm::codeview::TypeIndex", i8, i8, i16, %"class.llvm::codeview::TypeIndex" }
%"class.llvm::codeview::TypeRecord" = type { i16 }
%"class.llvm::pdb::NativeTypeFunctionSig" = type <{ %"class.llvm::pdb::NativeRawSymbol", %union.anon, i32, %"class.llvm::codeview::TypeIndex", [4 x i8], %"class.llvm::codeview::ArgListRecord", i8, [7 x i8] }>
%"class.llvm::pdb::NativeRawSymbol" = type { %"class.llvm::pdb::IPDBRawSymbol", ptr, i32, i32 }
%"class.llvm::pdb::IPDBRawSymbol" = type { ptr }
%union.anon = type { %"class.llvm::codeview::MemberFunctionRecord" }
%"class.llvm::codeview::MemberFunctionRecord" = type { %"class.llvm::codeview::TypeRecord", %"class.llvm::codeview::TypeIndex", %"class.llvm::codeview::TypeIndex", %"class.llvm::codeview::TypeIndex", i8, i8, i16, %"class.llvm::codeview::TypeIndex", i32 }
%"class.llvm::codeview::ArgListRecord" = type { %"class.llvm::codeview::TypeRecord", %"class.std::vector" }
%"class.std::vector" = type { %"struct.std::_Vector_base" }
%"struct.std::_Vector_base" = type { %"struct.std::_Vector_base<llvm::codeview::TypeIndex, std::allocator<llvm::codeview::TypeIndex>>::_Vector_impl" }
%"struct.std::_Vector_base<llvm::codeview::TypeIndex, std::allocator<llvm::codeview::TypeIndex>>::_Vector_impl" = type { %"struct.std::_Vector_base<llvm::codeview::TypeIndex, std::allocator<llvm::codeview::TypeIndex>>::_Vector_impl_data" }
%"struct.std::_Vector_base<llvm::codeview::TypeIndex, std::allocator<llvm::codeview::TypeIndex>>::_Vector_impl_data" = type { ptr, ptr, ptr }

; Function Attrs: mustprogress nounwind uwtable
define linkonce_odr hidden noundef zeroext i16 @_ZNK4llvm8codeview15ProcedureRecord17getParameterCountEv(ptr noundef nonnull align 2 dereferenceable(14) %0) #0 comdat align 2 {
  %2 = alloca ptr, align 8
  store ptr %0, ptr %2, align 8
  %3 = load ptr, ptr %2, align 8
  %4 = getelementptr inbounds nuw %"class.llvm::codeview::ProcedureRecord", ptr %3, i32 0, i32 4
  %5 = load i16, ptr %4, align 2
  ret i16 %5
}

; Function Attrs: mustprogress nounwind uwtable
define linkonce_odr hidden noundef zeroext i16 @_ZNK4llvm8codeview20MemberFunctionRecord17getParameterCountEv(ptr noundef nonnull align 4 dereferenceable(28) %0) #0 comdat align 2 {
  %2 = alloca ptr, align 8
  store ptr %0, ptr %2, align 8
  %3 = load ptr, ptr %2, align 8
  %4 = getelementptr inbounds nuw %"class.llvm::codeview::MemberFunctionRecord", ptr %3, i32 0, i32 6
  %5 = load i16, ptr %4, align 4
  ret i16 %5
}

; Function Attrs: mustprogress nounwind uwtable
define dso_local noundef i32 @_ZNK4llvm3pdb21NativeTypeFunctionSig8getCountEv(ptr noundef nonnull align 8 dereferenceable(97) %0) unnamed_addr #0 align 2 {
  %2 = alloca ptr, align 8
  store ptr %0, ptr %2, align 8
  %3 = load ptr, ptr %2, align 8
  %4 = getelementptr inbounds nuw %"class.llvm::pdb::NativeTypeFunctionSig", ptr %3, i32 0, i32 6
  %5 = load i8, ptr %4, align 8
  %6 = trunc i8 %5 to i1
  br i1 %6, label %7, label %12

7:                                                ; preds = %1
  %8 = getelementptr inbounds nuw %"class.llvm::pdb::NativeTypeFunctionSig", ptr %3, i32 0, i32 1
  %9 = call noundef zeroext i16 @_ZNK4llvm8codeview20MemberFunctionRecord17getParameterCountEv(ptr noundef nonnull align 4 dereferenceable(28) %8)
  %10 = zext i16 %9 to i32
  %11 = add nsw i32 1, %10
  br label %16

12:                                               ; preds = %1
  %13 = getelementptr inbounds nuw %"class.llvm::pdb::NativeTypeFunctionSig", ptr %3, i32 0, i32 1
  %14 = call noundef zeroext i16 @_ZNK4llvm8codeview15ProcedureRecord17getParameterCountEv(ptr noundef nonnull align 2 dereferenceable(14) %13)
  %15 = zext i16 %14 to i32
  br label %16

16:                                               ; preds = %12, %7
  %17 = phi i32 [ %11, %7 ], [ %15, %12 ]
  ret i32 %17
}