; Function Attrs: mustprogress nofree norecurse nosync nounwind willreturn memory(argmem: read) uwtable
define dso_local noundef range(i32 0, 65537) i32 @_ZNK4llvm3pdb21NativeTypeFunctionSig8getCountEv(ptr nocapture noundef nonnull readonly align 8 dereferenceable(97) %0) unnamed_addr #5 align 2 {
  %2 = getelementptr inbounds nuw i8, ptr %0, i64 96
  %3 = load i8, ptr %2, align 8
  %4 = trunc i8 %3 to i1
  %5 = getelementptr inbounds i8, ptr %0, i64 40
  %6 = load i16, ptr %5, align 8
  %7 = zext i16 %6 to i32
  %8 = add nuw nsw i32 %7, 1
  %9 = getelementptr inbounds i8, ptr %0, i64 32
  %10 = load i16, ptr %9, align 8
  %11 = zext i16 %10 to i32
  %12 = select i1 %4, i32 %8, i32 %11
  ret i32 %12
}